target datalayout = "e-m:e-p270:32:32-p271:32:32-p272:64:64-i64:64-i128:128-f80:128-n8:16:32:64-S128"
target triple = "x86_64-pc-linux-gnu"

%struct.PaAlsaStream = type { %struct.PaUtilStreamRepresentation, %struct.PaUtilCpuLoadMeasurer, %struct.PaUtilBufferProcessor, %struct.PaUnixThread, i64, i64, i32, i32, i32, i32, ptr, i32, i32, i32, i32, %struct.PaUnixMutex, i32, double, double, %struct.PaAlsaStreamComponent, %struct.PaAlsaStreamComponent }
%struct.PaUtilStreamRepresentation = type { i64, ptr, ptr, ptr, ptr, ptr, %struct.PaStreamInfo }
%struct.PaStreamInfo = type { i32, double, double, double }
%struct.PaUtilCpuLoadMeasurer = type { double, double, double }
%struct.PaUtilBufferProcessor = type { i64, i64, i32, i32, i32, i32, i64, i32, i32, i32, i32, ptr, ptr, i32, i32, i32, i32, ptr, ptr, i64, i64, ptr, ptr, i64, ptr, ptr, i64, ptr, i64, i32, [2 x i64], [2 x ptr], i32, [2 x i64], [2 x ptr], %struct.PaUtilTriangularDitherGenerator, double, ptr, ptr }
%struct.PaUtilTriangularDitherGenerator = type { i32, i32, i32 }
%struct.PaUnixThread = type { i64, i32, i32, i32, %struct.PaUnixMutex, %union.pthread_cond_t, i32, i32 }
%union.pthread_cond_t = type { %struct.__pthread_cond_s }
%struct.__pthread_cond_s = type { %union.__atomic_wide_counter, %union.__atomic_wide_counter, [2 x i32], [2 x i32], i32, i32, [2 x i32] }
%union.__atomic_wide_counter = type { i64 }
%struct.PaUnixMutex = type { %union.pthread_mutex_t }
%union.pthread_mutex_t = type { %struct.__pthread_mutex_s }
%struct.__pthread_mutex_s = type { i32, i32, i32, i32, i32, i16, i16, %struct.__pthread_internal_list }
%struct.__pthread_internal_list = type { ptr, ptr }
%struct.PaAlsaStreamComponent = type { i64, i32, i32, i32, i32, i32, ptr, i32, i32, i32, i32, ptr, i64, i64, i32, i32, i32, ptr, i64, i32, ptr }

@paUtilErr_ = internal global i32 0, align 4
@alsa_snd_pcm_avail_update = internal global ptr null, align 8
@alsa_snd_strerror = internal global ptr null, align 8
@paUnixMainThread = external global i64, align 8
@.str.186 = private unnamed_addr constant [180 x i8] c"Expression 'framesAvail' failed in 'generated/home/dtcxzyw/WorkSpace/Projects/compilers/llvm-opt-benchmark/bench/portaudio/portaudio/src/hostapi/alsa/pa_linux_alsa.c', line: 3666\0A\00", align 1

; Function Attrs: inlinehint nounwind willreturn memory(none) uwtable
define available_externally i32 @pthread_equal(i64 noundef %0, i64 noundef %1) #8 {
  %3 = alloca i64, align 8
  %4 = alloca i64, align 8
  store i64 %0, ptr %3, align 8, !tbaa !37
  store i64 %1, ptr %4, align 8, !tbaa !37
  %5 = load i64, ptr %3, align 8, !tbaa !37
  %6 = load i64, ptr %4, align 8, !tbaa !37
  %7 = icmp eq i64 %5, %6
  %8 = zext i1 %7 to i32
  ret i32 %8
}

; Function Attrs: nounwind uwtable
define internal i32 @PaAlsaStreamComponent_GetAvailableFrames(ptr noundef %0, ptr noundef %1, ptr noundef %2) #0 {
  %4 = alloca i32, align 4
  %5 = alloca ptr, align 8
  %6 = alloca ptr, align 8
  %7 = alloca ptr, align 8
  %8 = alloca i32, align 4
  %9 = alloca i64, align 8
  %10 = alloca i32, align 4
  %11 = alloca i32, align 4
  store ptr %0, ptr %5, align 8, !tbaa !32
  store ptr %1, ptr %6, align 8, !tbaa !206
  store ptr %2, ptr %7, align 8, !tbaa !122
  call void @llvm.lifetime.start.p0(i64 4, ptr %8) #17
  store i32 0, ptr %8, align 4, !tbaa !8
  call void @llvm.lifetime.start.p0(i64 8, ptr %9) #17
  %12 = load ptr, ptr @alsa_snd_pcm_avail_update, align 8, !tbaa !32
  %13 = load ptr, ptr %5, align 8, !tbaa !32
  %14 = getelementptr inbounds nuw %struct.PaAlsaStreamComponent, ptr %13, i32 0, i32 11
  %15 = load ptr, ptr %14, align 8, !tbaa !179
  %16 = call i64 %12(ptr noundef %15)
  store i64 %16, ptr %9, align 8, !tbaa !37
  %17 = load ptr, ptr %7, align 8, !tbaa !122
  store i32 0, ptr %17, align 4, !tbaa !8
  %18 = load i64, ptr %9, align 8, !tbaa !37
  %19 = icmp eq i64 -32, %18
  br i1 %19, label %20, label %22

20:                                               ; preds = %3
  %21 = load ptr, ptr %7, align 8, !tbaa !122
  store i32 1, ptr %21, align 4, !tbaa !8
  store i64 0, ptr %9, align 8, !tbaa !37
  br label %49

22:                                               ; preds = %3
  br label %23

23:                                               ; preds = %22
  call void @llvm.lifetime.start.p0(i64 4, ptr %10) #17
  %24 = load i64, ptr %9, align 8, !tbaa !37
  %25 = trunc i64 %24 to i32
  store i32 %25, ptr %10, align 4, !tbaa !8
  %26 = icmp slt i32 %25, 0
  %27 = zext i1 %26 to i32
  %28 = sext i32 %27 to i64
  %29 = call i64 @llvm.expect.i64(i64 %28, i64 0)
  %30 = icmp ne i64 %29, 0
  br i1 %30, label %31, label %43

31:                                               ; preds = %23
  %32 = call i64 @pthread_self() #20
  %33 = load i64, ptr @paUnixMainThread, align 8, !tbaa !37
  %34 = call i32 @pthread_equal(i64 noundef %32, i64 noundef %33) #20
  %35 = icmp ne i32 %34, 0
  br i1 %35, label %36, label %42

36:                                               ; preds = %31
  %37 = load i32, ptr %10, align 4, !tbaa !8
  %38 = sext i32 %37 to i64
  %39 = load ptr, ptr @alsa_snd_strerror, align 8, !tbaa !32
  %40 = load i32, ptr %10, align 4, !tbaa !8
  %41 = call ptr %39(i32 noundef %40)
  call void @PaUtil_SetLastHostErrorInfo(i32 noundef 8, i64 noundef %38, ptr noundef %41)
  br label %42

42:                                               ; preds = %36, %31
  call void (ptr, ...) @PaUtil_DebugPrint(ptr noundef @.str.186)
  store i32 -9999, ptr %8, align 4, !tbaa !8
  store i32 4, ptr %11, align 4
  br label %44

43:                                               ; preds = %23
  store i32 0, ptr %11, align 4
  br label %44

44:                                               ; preds = %42, %43
  call void @llvm.lifetime.end.p0(i64 4, ptr %10) #17
  %45 = load i32, ptr %11, align 4
  switch i32 %45, label %54 [
    i32 0, label %46
    i32 4, label %52
  ]

46:                                               ; preds = %44
  br label %47

47:                                               ; preds = %46
  br label %48

48:                                               ; preds = %47
  br label %49

49:                                               ; preds = %48, %20
  %50 = load i64, ptr %9, align 8, !tbaa !37
  %51 = load ptr, ptr %6, align 8, !tbaa !206
  store i64 %50, ptr %51, align 8, !tbaa !37
  br label %52

52:                                               ; preds = %49, %44
  %53 = load i32, ptr %8, align 4, !tbaa !8
  store i32 %53, ptr %4, align 4
  store i32 1, ptr %11, align 4
  br label %54

54:                                               ; preds = %52, %44
  call void @llvm.lifetime.end.p0(i64 8, ptr %9) #17
  call void @llvm.lifetime.end.p0(i64 4, ptr %8) #17
  %55 = load i32, ptr %4, align 4
  ret i32 %55
}

; Function Attrs: nounwind uwtable
define internal i32 @PaAlsaStream_GetAvailableFrames(ptr noundef %0, i32 noundef %1, i32 noundef %2, ptr noundef %3, ptr noundef %4) #0 {
  %6 = alloca ptr, align 8
  %7 = alloca i32, align 4
  %8 = alloca i32, align 4
  %9 = alloca ptr, align 8
  %10 = alloca ptr, align 8
  %11 = alloca i32, align 4
  %12 = alloca i64, align 8
  %13 = alloca i64, align 8
  store ptr %0, ptr %6, align 8, !tbaa !38
  store i32 %1, ptr %7, align 4, !tbaa !8
  store i32 %2, ptr %8, align 4, !tbaa !8
  store ptr %3, ptr %9, align 8, !tbaa !206
  store ptr %4, ptr %10, align 8, !tbaa !122
  call void @llvm.lifetime.start.p0(i64 4, ptr %11) #17
  store i32 0, ptr %11, align 4, !tbaa !8
  call void @llvm.lifetime.start.p0(i64 8, ptr %12) #17
  call void @llvm.lifetime.start.p0(i64 8, ptr %13) #17
  %14 = load ptr, ptr %10, align 8, !tbaa !122
  store i32 0, ptr %14, align 4, !tbaa !8
  %15 = load i32, ptr %7, align 4, !tbaa !8
  %16 = icmp ne i32 %15, 0
  br i1 %16, label %17, label %38

17:                                               ; preds = %5
  br label %18

18:                                               ; preds = %17
  %19 = load ptr, ptr %6, align 8, !tbaa !38
  %20 = getelementptr inbounds nuw %struct.PaAlsaStream, ptr %19, i32 0, i32 19
  %21 = load ptr, ptr %10, align 8, !tbaa !122
  %22 = call i32 @PaAlsaStreamComponent_GetAvailableFrames(ptr noundef %20, ptr noundef %12, ptr noundef %21)
  store i32 %22, ptr @paUtilErr_, align 4, !tbaa !8
  %23 = icmp slt i32 %22, 0
  %24 = zext i1 %23 to i32
  %25 = sext i32 %24 to i64
  %26 = call i64 @llvm.expect.i64(i64 %25, i64 0)
  %27 = icmp ne i64 %26, 0
  br i1 %27, label %28, label %30

28:                                               ; preds = %18
  call void (ptr, ...) @PaUtil_DebugPrint(ptr noundef @.str.184)
  %29 = load i32, ptr @paUtilErr_, align 4, !tbaa !8
  store i32 %29, ptr %11, align 4, !tbaa !8
  br label %91

30:                                               ; preds = %18
  br label %31

31:                                               ; preds = %30
  br label %32

32:                                               ; preds = %31
  %33 = load ptr, ptr %10, align 8, !tbaa !122
  %34 = load i32, ptr %33, align 4, !tbaa !8
  %35 = icmp ne i32 %34, 0
  br i1 %35, label %36, label %37

36:                                               ; preds = %32
  br label %90

37:                                               ; preds = %32
  br label %38

38:                                               ; preds = %37, %5
  %39 = load i32, ptr %8, align 4, !tbaa !8
  %40 = icmp ne i32 %39, 0
  br i1 %40, label %41, label %62

41:                                               ; preds = %38
  br label %42

42:                                               ; preds = %41
  %43 = load ptr, ptr %6, align 8, !tbaa !38
  %44 = getelementptr inbounds nuw %struct.PaAlsaStream, ptr %43, i32 0, i32 20
  %45 = load ptr, ptr %10, align 8, !tbaa !122
  %46 = call i32 @PaAlsaStreamComponent_GetAvailableFrames(ptr noundef %44, ptr noundef %13, ptr noundef %45)
  store i32 %46, ptr @paUtilErr_, align 4, !tbaa !8
  %47 = icmp slt i32 %46, 0
  %48 = zext i1 %47 to i32
  %49 = sext i32 %48 to i64
  %50 = call i64 @llvm.expect.i64(i64 %49, i64 0)
  %51 = icmp ne i64 %50, 0
  br i1 %51, label %52, label %54

52:                                               ; preds = %42
  call void (ptr, ...) @PaUtil_DebugPrint(ptr noundef @.str.185)
  %53 = load i32, ptr @paUtilErr_, align 4, !tbaa !8
  store i32 %53, ptr %11, align 4, !tbaa !8
  br label %91

54:                                               ; preds = %42
  br label %55

55:                                               ; preds = %54
  br label %56

56:                                               ; preds = %55
  %57 = load ptr, ptr %10, align 8, !tbaa !122
  %58 = load i32, ptr %57, align 4, !tbaa !8
  %59 = icmp ne i32 %58, 0
  br i1 %59, label %60, label %61

60:                                               ; preds = %56
  br label %90

61:                                               ; preds = %56
  br label %62

62:                                               ; preds = %61, %38
  %63 = load i32, ptr %7, align 4, !tbaa !8
  %64 = icmp ne i32 %63, 0
  br i1 %64, label %65, label %79

65:                                               ; preds = %62
  %66 = load i32, ptr %8, align 4, !tbaa !8
  %67 = icmp ne i32 %66, 0
  br i1 %67, label %68, label %79

68:                                               ; preds = %65
  %69 = load i64, ptr %12, align 8, !tbaa !37
  %70 = load i64, ptr %13, align 8, !tbaa !37
  %71 = icmp ult i64 %69, %70
  br i1 %71, label %72, label %74

72:                                               ; preds = %68
  %73 = load i64, ptr %12, align 8, !tbaa !37
  br label %76

74:                                               ; preds = %68
  %75 = load i64, ptr %13, align 8, !tbaa !37
  br label %76

76:                                               ; preds = %74, %72
  %77 = phi i64 [ %73, %72 ], [ %75, %74 ]
  %78 = load ptr, ptr %9, align 8, !tbaa !206
  store i64 %77, ptr %78, align 8, !tbaa !37
  br label %89

79:                                               ; preds = %65, %62
  %80 = load i32, ptr %7, align 4, !tbaa !8
  %81 = icmp ne i32 %80, 0
  br i1 %81, label %82, label %85

82:                                               ; preds = %79
  %83 = load i64, ptr %12, align 8, !tbaa !37
  %84 = load ptr, ptr %9, align 8, !tbaa !206
  store i64 %83, ptr %84, align 8, !tbaa !37
  br label %88

85:                                               ; preds = %79
  %86 = load i64, ptr %13, align 8, !tbaa !37
  %87 = load ptr, ptr %9, align 8, !tbaa !206
  store i64 %86, ptr %87, align 8, !tbaa !37
  br label %88

88:                                               ; preds = %85, %82
  br label %89

89:                                               ; preds = %88, %76
  br label %90

90:                                               ; preds = %89, %60, %36
  br label %91

91:                                               ; preds = %90, %52, %28
  %92 = load i32, ptr %11, align 4, !tbaa !8
  call void @llvm.lifetime.end.p0(i64 8, ptr %13) #17
  call void @llvm.lifetime.end.p0(i64 8, ptr %12) #17
  call void @llvm.lifetime.end.p0(i64 4, ptr %11) #17
  ret i32 %92
}