; Function Attrs: nounwind uwtable
define internal fastcc i32 @PaAlsaStream_GetAvailableFrames(ptr noundef readonly captures(none) %0, i32 noundef %1, i32 noundef %2, ptr noundef nonnull writeonly captures(none) %3, ptr noundef nonnull writeonly captures(none) initializes((0, 4)) %4) unnamed_addr #2 {
  store i32 0, ptr %4, align 4, !tbaa !3
  %.not45 = icmp eq i32 %1, 0
  br i1 %.not45, label %22, label %6

6:                                                ; preds = %5
  %7 = getelementptr i8, ptr %0, i64 704
  %.val = load ptr, ptr %7, align 8, !tbaa !147
  %8 = tail call i64 @snd_pcm_avail_update(ptr noundef %.val) #25, !callees !148
  store i32 0, ptr %4, align 4, !tbaa !3
  %9 = icmp eq i64 %8, -32
  br i1 %9, label %21, label %10

10:                                               ; preds = %6
  %11 = trunc i64 %8 to i32
  %12 = icmp slt i32 %11, 0
  br i1 %12, label %13, label %.thread48, !prof !9

13:                                               ; preds = %10
  %14 = tail call i64 @pthread_self() #28
  %15 = load i64, ptr @paUnixMainThread, align 8, !tbaa !108
  %.not.i = icmp eq i64 %14, %15
  br i1 %.not.i, label %16, label %19

16:                                               ; preds = %13
  %sext.i = shl i64 %8, 32
  %17 = ashr exact i64 %sext.i, 32
  %18 = tail call ptr @snd_strerror(i32 noundef %11) #25, !callees !109
  tail call void @PaUtil_SetLastHostErrorInfo(i32 noundef 8, i64 noundef %17, ptr noundef %18) #25
  br label %19

19:                                               ; preds = %16, %13
  tail call void (ptr, ...) @PaUtil_DebugPrint(ptr noundef nonnull @.str.186) #25
  store i32 -9999, ptr @paUtilErr_, align 4, !tbaa !3
  tail call void (ptr, ...) @PaUtil_DebugPrint(ptr noundef nonnull @.str.184) #25
  %20 = load i32, ptr @paUtilErr_, align 4, !tbaa !3
  br label %43

21:                                               ; preds = %6
  store i32 1, ptr %4, align 4, !tbaa !3
  store i32 0, ptr @paUtilErr_, align 4, !tbaa !3
  br label %43

22:                                               ; preds = %5
  %.not = icmp eq i32 %2, 0
  br i1 %.not, label %.thread41, label %23

.thread48:                                        ; preds = %10
  store i32 0, ptr @paUtilErr_, align 4, !tbaa !3
  %.not50 = icmp eq i32 %2, 0
  br i1 %.not50, label %42, label %23

23:                                               ; preds = %.thread48, %22
  %.02851 = phi i64 [ %8, %.thread48 ], [ undef, %22 ]
  %24 = getelementptr i8, ptr %0, i64 832
  %.val17 = load ptr, ptr %24, align 8, !tbaa !147
  %25 = tail call i64 @snd_pcm_avail_update(ptr noundef %.val17) #25, !callees !148
  store i32 0, ptr %4, align 4, !tbaa !3
  %26 = icmp eq i64 %25, -32
  br i1 %26, label %38, label %27

27:                                               ; preds = %23
  %28 = trunc i64 %25 to i32
  %29 = icmp slt i32 %28, 0
  br i1 %29, label %30, label %39, !prof !9

30:                                               ; preds = %27
  %31 = tail call i64 @pthread_self() #28
  %32 = load i64, ptr @paUnixMainThread, align 8, !tbaa !108
  %.not.i21 = icmp eq i64 %31, %32
  br i1 %.not.i21, label %33, label %36

33:                                               ; preds = %30
  %sext.i22 = shl i64 %25, 32
  %34 = ashr exact i64 %sext.i22, 32
  %35 = tail call ptr @snd_strerror(i32 noundef %28) #25, !callees !109
  tail call void @PaUtil_SetLastHostErrorInfo(i32 noundef 8, i64 noundef %34, ptr noundef %35) #25
  br label %36

36:                                               ; preds = %33, %30
  tail call void (ptr, ...) @PaUtil_DebugPrint(ptr noundef nonnull @.str.186) #25
  store i32 -9999, ptr @paUtilErr_, align 4, !tbaa !3
  tail call void (ptr, ...) @PaUtil_DebugPrint(ptr noundef nonnull @.str.185) #25
  %37 = load i32, ptr @paUtilErr_, align 4, !tbaa !3
  br label %43

38:                                               ; preds = %23
  store i32 1, ptr %4, align 4, !tbaa !3
  store i32 0, ptr @paUtilErr_, align 4, !tbaa !3
  br label %43

39:                                               ; preds = %27
  store i32 0, ptr @paUtilErr_, align 4, !tbaa !3
  br i1 %.not45, label %.thread41, label %40

40:                                               ; preds = %39
  %41 = tail call i64 @llvm.umin.i64(i64 %.02851, i64 %25)
  store i64 %41, ptr %3, align 8, !tbaa !108
  br label %43

42:                                               ; preds = %.thread48
  store i64 %8, ptr %3, align 8, !tbaa !108
  br label %43

.thread41:                                        ; preds = %39, %22
  %.0274447 = phi i64 [ undef, %22 ], [ %25, %39 ]
  store i64 %.0274447, ptr %3, align 8, !tbaa !108
  br label %43

43:                                               ; preds = %38, %21, %42, %.thread41, %40, %36, %19
  %.0 = phi i32 [ %20, %19 ], [ 0, %21 ], [ %37, %36 ], [ 0, %38 ], [ 0, %40 ], [ 0, %42 ], [ 0, %.thread41 ]
  ret i32 %.0
}